; Function Attrs: nounwind uwtable
define internal void @xdgDecorationHandleConfigure(ptr noundef initializes((976, 980)) %0, ptr readnone captures(none) %1, i32 noundef %2) #0 {
  %4 = getelementptr inbounds nuw i8, ptr %0, i64 976
  store i32 %2, ptr %4, align 8, !tbaa !254
  %5 = icmp eq i32 %2, 1
  br i1 %5, label %6, label %13

6:                                                ; preds = %3
  %7 = getelementptr inbounds nuw i8, ptr %0, i64 12
  %8 = load i32, ptr %7, align 4, !tbaa !228
  %.not = icmp eq i32 %8, 0
  br i1 %.not, label %14, label %9

9:                                                ; preds = %6
  %10 = getelementptr inbounds nuw i8, ptr %0, i64 80
  %11 = load ptr, ptr %10, align 8, !tbaa !157
  %.not7 = icmp eq ptr %11, null
  br i1 %.not7, label %12, label %14

12:                                               ; preds = %9
  tail call fastcc void @createFallbackDecorations(ptr noundef nonnull %0)
  br label %14

13:                                               ; preds = %3
  tail call fastcc void @destroyFallbackDecorations(ptr noundef nonnull %0)
  br label %14

14:                                               ; preds = %6, %9, %12, %13
  ret void
}